target datalayout = "e-m:e-p270:32:32-p271:32:32-p272:64:64-i64:64-i128:128-f80:128-n8:16:32:64-S128"
target triple = "x86_64-pc-linux-gnu"

%"class.toku::txnid_set" = type { %"class.toku::omt" }
%"class.toku::omt" = type { i8, i32, %union.anon }
%union.anon = type { %"struct.toku::omt<unsigned long>::omt_array" }
%"struct.toku::omt<unsigned long>::omt_array" = type { i32, i32, ptr }
%"struct.toku::omt<unsigned long>::omt_tree" = type { %"class.toku::omt_internal::subtree_templated", i32, ptr }
%"class.toku::omt_internal::subtree_templated" = type { i32 }
%"class.toku::omt_internal::omt_node_templated" = type <{ i64, i32, %"class.toku::omt_internal::subtree_templated", %"class.toku::omt_internal::subtree_templated", [4 x i8] }>

; Function Attrs: inlinehint mustprogress nounwind uwtable
define linkonce_odr noundef i32 @_ZNK4toku12omt_internal17subtree_templatedILb0EE9get_indexEv(ptr noundef nonnull align 4 dereferenceable(4) %0) #4 comdat align 2 {
  %2 = alloca ptr, align 8
  store ptr %0, ptr %2, align 8, !tbaa !26
  %3 = load ptr, ptr %2, align 8
  %4 = getelementptr inbounds nuw %"class.toku::omt_internal::subtree_templated", ptr %3, i32 0, i32 0
  %5 = load i32, ptr %4, align 4, !tbaa !28
  ret i32 %5
}

; Function Attrs: inlinehint mustprogress uwtable
define linkonce_odr noundef zeroext i1 @_ZNK4toku12omt_internal17subtree_templatedILb0EE7is_nullEv(ptr noundef nonnull align 4 dereferenceable(4) %0) #5 comdat align 2 {
  %2 = alloca ptr, align 8
  store ptr %0, ptr %2, align 8, !tbaa !26
  %3 = load ptr, ptr %2, align 8
  %4 = call noundef i32 @_ZNK4toku12omt_internal17subtree_templatedILb0EE9get_indexEv(ptr noundef nonnull align 4 dereferenceable(4) %3)
  %5 = icmp eq i32 -1, %4
  ret i1 %5
}

; Function Attrs: mustprogress uwtable
define linkonce_odr noundef i32 @_ZNK4toku3omtImmLb0EE7nweightERKNS_12omt_internal17subtree_templatedILb0EEE(ptr noundef nonnull align 8 dereferenceable(24) %0, ptr noundef nonnull align 4 dereferenceable(4) %1) #1 comdat align 2 {
  %3 = alloca i32, align 4
  %4 = alloca ptr, align 8
  %5 = alloca ptr, align 8
  store ptr %0, ptr %4, align 8, !tbaa !13
  store ptr %1, ptr %5, align 8, !tbaa !26
  %6 = load ptr, ptr %4, align 8
  %7 = load ptr, ptr %5, align 8, !tbaa !26
  %8 = call noundef zeroext i1 @_ZNK4toku12omt_internal17subtree_templatedILb0EE7is_nullEv(ptr noundef nonnull align 4 dereferenceable(4) %7)
  br i1 %8, label %9, label %10

9:                                                ; preds = %2
  store i32 0, ptr %3, align 4
  br label %20

10:                                               ; preds = %2
  %11 = getelementptr inbounds nuw %"class.toku::omt", ptr %6, i32 0, i32 2
  %12 = getelementptr inbounds nuw %"struct.toku::omt<unsigned long>::omt_tree", ptr %11, i32 0, i32 2
  %13 = load ptr, ptr %12, align 8, !tbaa !22
  %14 = load ptr, ptr %5, align 8, !tbaa !26
  %15 = call noundef i32 @_ZNK4toku12omt_internal17subtree_templatedILb0EE9get_indexEv(ptr noundef nonnull align 4 dereferenceable(4) %14)
  %16 = zext i32 %15 to i64
  %17 = getelementptr inbounds nuw %"class.toku::omt_internal::omt_node_templated", ptr %13, i64 %16
  %18 = getelementptr inbounds nuw %"class.toku::omt_internal::omt_node_templated", ptr %17, i32 0, i32 1
  %19 = load i32, ptr %18, align 8, !tbaa !34
  store i32 %19, ptr %3, align 4
  br label %20

20:                                               ; preds = %10, %9
  %21 = load i32, ptr %3, align 4
  ret i32 %21
}

; Function Attrs: mustprogress uwtable
define linkonce_odr noundef i32 @_ZNK4toku3omtImmLb0EE4sizeEv(ptr noundef nonnull align 8 dereferenceable(24) %0) #1 comdat align 2 {
  %2 = alloca i32, align 4
  %3 = alloca ptr, align 8
  store ptr %0, ptr %3, align 8, !tbaa !13
  %4 = load ptr, ptr %3, align 8
  %5 = getelementptr inbounds nuw %"class.toku::omt", ptr %4, i32 0, i32 0
  %6 = load i8, ptr %5, align 8, !tbaa !19, !range !20, !noundef !21
  %7 = trunc i8 %6 to i1
  br i1 %7, label %8, label %12

8:                                                ; preds = %1
  %9 = getelementptr inbounds nuw %"class.toku::omt", ptr %4, i32 0, i32 2
  %10 = getelementptr inbounds nuw %"struct.toku::omt<unsigned long>::omt_array", ptr %9, i32 0, i32 1
  %11 = load i32, ptr %10, align 4, !tbaa !22
  store i32 %11, ptr %2, align 4
  br label %16

12:                                               ; preds = %1
  %13 = getelementptr inbounds nuw %"class.toku::omt", ptr %4, i32 0, i32 2
  %14 = getelementptr inbounds nuw %"struct.toku::omt<unsigned long>::omt_tree", ptr %13, i32 0, i32 0
  %15 = call noundef i32 @_ZNK4toku3omtImmLb0EE7nweightERKNS_12omt_internal17subtree_templatedILb0EEE(ptr noundef nonnull align 8 dereferenceable(24) %4, ptr noundef nonnull align 4 dereferenceable(4) %14)
  store i32 %15, ptr %2, align 4
  br label %16

16:                                               ; preds = %12, %8
  %17 = load i32, ptr %2, align 4
  ret i32 %17
}

; Function Attrs: mustprogress uwtable
define noundef i32 @_ZNK4toku9txnid_set4sizeEv(ptr noundef nonnull align 8 dereferenceable(24) %0) #1 align 2 {
  %2 = alloca ptr, align 8
  store ptr %0, ptr %2, align 8, !tbaa !11
  %3 = load ptr, ptr %2, align 8
  %4 = getelementptr inbounds nuw %"class.toku::txnid_set", ptr %3, i32 0, i32 0
  %5 = call noundef i32 @_ZNK4toku3omtImmLb0EE4sizeEv(ptr noundef nonnull align 8 dereferenceable(24) %4)
  ret i32 %5
}