; Function Attrs: mustprogress nofree norecurse nosync nounwind willreturn memory(read, inaccessiblemem: none) uwtable
define noundef i32 @_ZNK4toku9txnid_set4sizeEv(ptr noundef nonnull readonly align 8 captures(none) dereferenceable(24) %0) local_unnamed_addr #4 align 2 {
  %2 = load i8, ptr %0, align 8, !tbaa !8, !range !12, !noundef !13
  %3 = trunc nuw i8 %2 to i1
  br i1 %3, label %4, label %7

4:                                                ; preds = %1
  %5 = getelementptr inbounds nuw i8, ptr %0, i64 12
  %6 = load i32, ptr %5, align 4, !tbaa !14
  br label %_ZNK4toku3omtImmLb0EE4sizeEv.exit

7:                                                ; preds = %1
  %8 = getelementptr inbounds nuw i8, ptr %0, i64 8
  %9 = load i32, ptr %8, align 8, !tbaa !16
  %10 = icmp eq i32 %9, -1
  br i1 %10, label %_ZNK4toku3omtImmLb0EE4sizeEv.exit, label %11

11:                                               ; preds = %7
  %12 = getelementptr inbounds nuw i8, ptr %0, i64 16
  %13 = load ptr, ptr %12, align 8, !tbaa !14
  %14 = zext i32 %9 to i64
  %15 = getelementptr inbounds nuw %"class.toku::omt_internal::omt_node_templated", ptr %13, i64 %14, i32 1
  %16 = load i32, ptr %15, align 8, !tbaa !21
  br label %_ZNK4toku3omtImmLb0EE4sizeEv.exit

_ZNK4toku3omtImmLb0EE4sizeEv.exit:                ; preds = %4, %7, %11
  %.0.i = phi i32 [ %6, %4 ], [ %16, %11 ], [ 0, %7 ]
  ret i32 %.0.i
}